target datalayout = "e-m:e-p270:32:32-p271:32:32-p272:64:64-i64:64-i128:128-f80:128-n8:16:32:64-S128"
target triple = "x86_64-pc-linux-gnu"

%struct.ident_t = type { i32, i32, i32, i32, ptr }
%"class.ncnn::Scale" = type { %"class.ncnn::Layer", i32, i32, %"class.ncnn::Mat", %"class.ncnn::Mat" }
%"class.ncnn::Layer" = type { ptr, i8, i8, i8, i8, i8, i8, i8, i8, i8, i8, i8, i8, i8, i8, i8, i8, i8, i8, i8, i8, i32, ptr, i32, %"class.std::__cxx11::basic_string", %"class.std::__cxx11::basic_string", %"class.std::vector", %"class.std::vector", %"class.std::vector.3", %"class.std::vector.3" }
%"class.std::__cxx11::basic_string" = type { %"struct.std::__cxx11::basic_string<char>::_Alloc_hider", i64, %union.anon }
%"struct.std::__cxx11::basic_string<char>::_Alloc_hider" = type { ptr }
%union.anon = type { i64, [8 x i8] }
%"class.std::vector" = type { %"struct.std::_Vector_base" }
%"struct.std::_Vector_base" = type { %"struct.std::_Vector_base<int, std::allocator<int>>::_Vector_impl" }
%"struct.std::_Vector_base<int, std::allocator<int>>::_Vector_impl" = type { %"struct.std::_Vector_base<int, std::allocator<int>>::_Vector_impl_data" }
%"struct.std::_Vector_base<int, std::allocator<int>>::_Vector_impl_data" = type { ptr, ptr, ptr }
%"class.std::vector.3" = type { %"struct.std::_Vector_base.4" }
%"struct.std::_Vector_base.4" = type { %"struct.std::_Vector_base<ncnn::Mat, std::allocator<ncnn::Mat>>::_Vector_impl" }
%"struct.std::_Vector_base<ncnn::Mat, std::allocator<ncnn::Mat>>::_Vector_impl" = type { %"struct.std::_Vector_base<ncnn::Mat, std::allocator<ncnn::Mat>>::_Vector_impl_data" }
%"struct.std::_Vector_base<ncnn::Mat, std::allocator<ncnn::Mat>>::_Vector_impl_data" = type { ptr, ptr, ptr }
%"class.ncnn::Mat" = type { ptr, ptr, i64, i32, ptr, i32, i32, i32, i32, i32, i64 }
%"class.ncnn::Option" = type { i8, i32, ptr, ptr, i32, i8, i8, i8, i8, i8, i8, i8, i8, i8, i8, i8, i8, i8, i8, i8, i8, i8, i8, i8, i8, i32, i8, i8, i8, i8, i8, i8, i8, i8, i8, i8, i8, i8 }

@2 = private unnamed_addr constant %struct.ident_t { i32 0, i32 2, i32 0, i32 22, ptr @0 }, align 8

; Function Attrs: alwaysinline mustprogress nounwind uwtable
define linkonce_odr hidden noundef ptr @_ZN4ncnn3MatcvPT_IfEEv(ptr noundef nonnull align 8 dereferenceable(72) %0) #3 comdat align 2 {
  %2 = alloca ptr, align 8
  store ptr %0, ptr %2, align 8, !tbaa !42
  %3 = load ptr, ptr %2, align 8
  %4 = getelementptr inbounds nuw %"class.ncnn::Mat", ptr %3, i32 0, i32 0
  %5 = load ptr, ptr %4, align 8, !tbaa !53
  ret ptr %5
}

; Function Attrs: mustprogress nounwind uwtable
define linkonce_odr hidden noundef nonnull align 8 dereferenceable(72) ptr @_ZNSt6vectorIN4ncnn3MatESaIS1_EEixEm(ptr noundef nonnull align 8 dereferenceable(24) %0, i64 noundef %1) #8 comdat align 2 {
  %3 = alloca ptr, align 8
  %4 = alloca i64, align 8
  store ptr %0, ptr %3, align 8, !tbaa !38
  store i64 %1, ptr %4, align 8, !tbaa !61
  %5 = load ptr, ptr %3, align 8
  %6 = getelementptr inbounds nuw %"struct.std::_Vector_base.4", ptr %5, i32 0, i32 0
  %7 = getelementptr inbounds nuw %"struct.std::_Vector_base<ncnn::Mat, std::allocator<ncnn::Mat>>::_Vector_impl_data", ptr %6, i32 0, i32 0
  %8 = load ptr, ptr %7, align 8, !tbaa !62
  %9 = load i64, ptr %4, align 8, !tbaa !61
  %10 = getelementptr inbounds nuw %"class.ncnn::Mat", ptr %8, i64 %9
  ret ptr %10
}

; Function Attrs: mustprogress uwtable
define hidden noundef i32 @_ZNK4ncnn5Scale15forward_inplaceERSt6vectorINS_3MatESaIS2_EERKNS_6OptionE(ptr noundef nonnull align 8 dereferenceable(360) %0, ptr noundef nonnull align 8 dereferenceable(24) %1, ptr noundef nonnull align 8 dereferenceable(64) %2) unnamed_addr #1 align 2 {
  %4 = alloca ptr, align 8
  %5 = alloca ptr, align 8
  %6 = alloca ptr, align 8
  %7 = alloca ptr, align 8
  %8 = alloca ptr, align 8
  %9 = alloca i32, align 4
  %10 = alloca i32, align 4
  %11 = alloca ptr, align 8
  %12 = alloca i32, align 4
  %13 = alloca i32, align 4
  %14 = alloca i32, align 4
  %15 = alloca i32, align 4
  %16 = alloca i32, align 4
  %17 = alloca i32, align 4
  %18 = call i32 @__kmpc_global_thread_num(ptr @2)
  store ptr %0, ptr %4, align 8, !tbaa !4
  store ptr %1, ptr %5, align 8, !tbaa !38
  store ptr %2, ptr %6, align 8, !tbaa !40
  %19 = load ptr, ptr %4, align 8
  call void @llvm.lifetime.start.p0(i64 8, ptr %7) #10
  %20 = load ptr, ptr %5, align 8, !tbaa !38
  %21 = call noundef nonnull align 8 dereferenceable(72) ptr @_ZNSt6vectorIN4ncnn3MatESaIS1_EEixEm(ptr noundef nonnull align 8 dereferenceable(24) %20, i64 noundef 0) #10
  store ptr %21, ptr %7, align 8, !tbaa !42
  call void @llvm.lifetime.start.p0(i64 8, ptr %8) #10
  %22 = load ptr, ptr %5, align 8, !tbaa !38
  %23 = call noundef nonnull align 8 dereferenceable(72) ptr @_ZNSt6vectorIN4ncnn3MatESaIS1_EEixEm(ptr noundef nonnull align 8 dereferenceable(24) %22, i64 noundef 1) #10
  store ptr %23, ptr %8, align 8, !tbaa !42
  call void @llvm.lifetime.start.p0(i64 4, ptr %9) #10
  %24 = load ptr, ptr %7, align 8, !tbaa !42
  %25 = getelementptr inbounds nuw %"class.ncnn::Mat", ptr %24, i32 0, i32 5
  %26 = load i32, ptr %25, align 8, !tbaa !43
  store i32 %26, ptr %9, align 4, !tbaa !44
  %27 = load i32, ptr %9, align 4, !tbaa !44
  %28 = icmp eq i32 %27, 1
  br i1 %28, label %29, label %49

29:                                               ; preds = %3
  call void @llvm.lifetime.start.p0(i64 4, ptr %10) #10
  %30 = load ptr, ptr %7, align 8, !tbaa !42
  %31 = getelementptr inbounds nuw %"class.ncnn::Mat", ptr %30, i32 0, i32 6
  %32 = load i32, ptr %31, align 4, !tbaa !45
  store i32 %32, ptr %10, align 4, !tbaa !44
  call void @llvm.lifetime.start.p0(i64 8, ptr %11) #10
  %33 = load ptr, ptr %7, align 8, !tbaa !42
  %34 = call noundef ptr @_ZN4ncnn3MatcvPT_IfEEv(ptr noundef nonnull align 8 dereferenceable(72) %33)
  store ptr %34, ptr %11, align 8, !tbaa !46
  %35 = getelementptr inbounds nuw %"class.ncnn::Scale", ptr %19, i32 0, i32 2
  %36 = load i32, ptr %35, align 4, !tbaa !34
  %37 = icmp ne i32 %36, 0
  br i1 %37, label %38, label %43

38:                                               ; preds = %29
  %39 = load ptr, ptr %6, align 8, !tbaa !40
  %40 = getelementptr inbounds nuw %"class.ncnn::Option", ptr %39, i32 0, i32 1
  %41 = load i32, ptr %40, align 4, !tbaa !48
  call void @__kmpc_push_num_threads(ptr @2, i32 %18, i32 %41)
  %42 = load ptr, ptr %8, align 8, !tbaa !42
  call void (ptr, i32, ptr, ...) @__kmpc_fork_call(ptr @2, i32 4, ptr @_ZNK4ncnn5Scale15forward_inplaceERSt6vectorINS_3MatESaIS2_EERKNS_6OptionE.omp_outlined, ptr %10, ptr %11, ptr %42, ptr %19)
  br label %48

43:                                               ; preds = %29
  %44 = load ptr, ptr %6, align 8, !tbaa !40
  %45 = getelementptr inbounds nuw %"class.ncnn::Option", ptr %44, i32 0, i32 1
  %46 = load i32, ptr %45, align 4, !tbaa !48
  call void @__kmpc_push_num_threads(ptr @2, i32 %18, i32 %46)
  %47 = load ptr, ptr %8, align 8, !tbaa !42
  call void (ptr, i32, ptr, ...) @__kmpc_fork_call(ptr @2, i32 3, ptr @_ZNK4ncnn5Scale15forward_inplaceERSt6vectorINS_3MatESaIS2_EERKNS_6OptionE.omp_outlined.1, ptr %10, ptr %11, ptr %47)
  br label %48

48:                                               ; preds = %43, %38
  call void @llvm.lifetime.end.p0(i64 8, ptr %11) #10
  call void @llvm.lifetime.end.p0(i64 4, ptr %10) #10
  br label %49

49:                                               ; preds = %48, %3
  %50 = load i32, ptr %9, align 4, !tbaa !44
  %51 = icmp eq i32 %50, 2
  br i1 %51, label %52, label %75

52:                                               ; preds = %49
  call void @llvm.lifetime.start.p0(i64 4, ptr %12) #10
  %53 = load ptr, ptr %7, align 8, !tbaa !42
  %54 = getelementptr inbounds nuw %"class.ncnn::Mat", ptr %53, i32 0, i32 6
  %55 = load i32, ptr %54, align 4, !tbaa !45
  store i32 %55, ptr %12, align 4, !tbaa !44
  call void @llvm.lifetime.start.p0(i64 4, ptr %13) #10
  %56 = load ptr, ptr %7, align 8, !tbaa !42
  %57 = getelementptr inbounds nuw %"class.ncnn::Mat", ptr %56, i32 0, i32 7
  %58 = load i32, ptr %57, align 8, !tbaa !50
  store i32 %58, ptr %13, align 4, !tbaa !44
  %59 = getelementptr inbounds nuw %"class.ncnn::Scale", ptr %19, i32 0, i32 2
  %60 = load i32, ptr %59, align 4, !tbaa !34
  %61 = icmp ne i32 %60, 0
  br i1 %61, label %62, label %68

62:                                               ; preds = %52
  %63 = load ptr, ptr %6, align 8, !tbaa !40
  %64 = getelementptr inbounds nuw %"class.ncnn::Option", ptr %63, i32 0, i32 1
  %65 = load i32, ptr %64, align 4, !tbaa !48
  call void @__kmpc_push_num_threads(ptr @2, i32 %18, i32 %65)
  %66 = load ptr, ptr %7, align 8, !tbaa !42
  %67 = load ptr, ptr %8, align 8, !tbaa !42
  call void (ptr, i32, ptr, ...) @__kmpc_fork_call(ptr @2, i32 5, ptr @_ZNK4ncnn5Scale15forward_inplaceERSt6vectorINS_3MatESaIS2_EERKNS_6OptionE.omp_outlined.2, ptr %13, ptr %66, ptr %67, ptr %19, ptr %12)
  br label %74

68:                                               ; preds = %52
  %69 = load ptr, ptr %6, align 8, !tbaa !40
  %70 = getelementptr inbounds nuw %"class.ncnn::Option", ptr %69, i32 0, i32 1
  %71 = load i32, ptr %70, align 4, !tbaa !48
  call void @__kmpc_push_num_threads(ptr @2, i32 %18, i32 %71)
  %72 = load ptr, ptr %7, align 8, !tbaa !42
  %73 = load ptr, ptr %8, align 8, !tbaa !42
  call void (ptr, i32, ptr, ...) @__kmpc_fork_call(ptr @2, i32 4, ptr @_ZNK4ncnn5Scale15forward_inplaceERSt6vectorINS_3MatESaIS2_EERKNS_6OptionE.omp_outlined.3, ptr %13, ptr %72, ptr %73, ptr %12)
  br label %74

74:                                               ; preds = %68, %62
  call void @llvm.lifetime.end.p0(i64 4, ptr %13) #10
  call void @llvm.lifetime.end.p0(i64 4, ptr %12) #10
  br label %75

75:                                               ; preds = %74, %49
  %76 = load i32, ptr %9, align 4, !tbaa !44
  %77 = icmp eq i32 %76, 3
  br i1 %77, label %78, label %107

78:                                               ; preds = %75
  call void @llvm.lifetime.start.p0(i64 4, ptr %14) #10
  %79 = load ptr, ptr %7, align 8, !tbaa !42
  %80 = getelementptr inbounds nuw %"class.ncnn::Mat", ptr %79, i32 0, i32 6
  %81 = load i32, ptr %80, align 4, !tbaa !45
  store i32 %81, ptr %14, align 4, !tbaa !44
  call void @llvm.lifetime.start.p0(i64 4, ptr %15) #10
  %82 = load ptr, ptr %7, align 8, !tbaa !42
  %83 = getelementptr inbounds nuw %"class.ncnn::Mat", ptr %82, i32 0, i32 7
  %84 = load i32, ptr %83, align 8, !tbaa !50
  store i32 %84, ptr %15, align 4, !tbaa !44
  call void @llvm.lifetime.start.p0(i64 4, ptr %16) #10
  %85 = load ptr, ptr %7, align 8, !tbaa !42
  %86 = getelementptr inbounds nuw %"class.ncnn::Mat", ptr %85, i32 0, i32 9
  %87 = load i32, ptr %86, align 8, !tbaa !51
  store i32 %87, ptr %16, align 4, !tbaa !44
  call void @llvm.lifetime.start.p0(i64 4, ptr %17) #10
  %88 = load i32, ptr %14, align 4, !tbaa !44
  %89 = load i32, ptr %15, align 4, !tbaa !44
  %90 = mul nsw i32 %88, %89
  store i32 %90, ptr %17, align 4, !tbaa !44
  %91 = getelementptr inbounds nuw %"class.ncnn::Scale", ptr %19, i32 0, i32 2
  %92 = load i32, ptr %91, align 4, !tbaa !34
  %93 = icmp ne i32 %92, 0
  br i1 %93, label %94, label %100

94:                                               ; preds = %78
  %95 = load ptr, ptr %6, align 8, !tbaa !40
  %96 = getelementptr inbounds nuw %"class.ncnn::Option", ptr %95, i32 0, i32 1
  %97 = load i32, ptr %96, align 4, !tbaa !48
  call void @__kmpc_push_num_threads(ptr @2, i32 %18, i32 %97)
  %98 = load ptr, ptr %7, align 8, !tbaa !42
  %99 = load ptr, ptr %8, align 8, !tbaa !42
  call void (ptr, i32, ptr, ...) @__kmpc_fork_call(ptr @2, i32 5, ptr @_ZNK4ncnn5Scale15forward_inplaceERSt6vectorINS_3MatESaIS2_EERKNS_6OptionE.omp_outlined.4, ptr %16, ptr %98, ptr %99, ptr %19, ptr %17)
  br label %106

100:                                              ; preds = %78
  %101 = load ptr, ptr %6, align 8, !tbaa !40
  %102 = getelementptr inbounds nuw %"class.ncnn::Option", ptr %101, i32 0, i32 1
  %103 = load i32, ptr %102, align 4, !tbaa !48
  call void @__kmpc_push_num_threads(ptr @2, i32 %18, i32 %103)
  %104 = load ptr, ptr %7, align 8, !tbaa !42
  %105 = load ptr, ptr %8, align 8, !tbaa !42
  call void (ptr, i32, ptr, ...) @__kmpc_fork_call(ptr @2, i32 4, ptr @_ZNK4ncnn5Scale15forward_inplaceERSt6vectorINS_3MatESaIS2_EERKNS_6OptionE.omp_outlined.5, ptr %16, ptr %104, ptr %105, ptr %17)
  br label %106

106:                                              ; preds = %100, %94
  call void @llvm.lifetime.end.p0(i64 4, ptr %17) #10
  call void @llvm.lifetime.end.p0(i64 4, ptr %16) #10
  call void @llvm.lifetime.end.p0(i64 4, ptr %15) #10
  call void @llvm.lifetime.end.p0(i64 4, ptr %14) #10
  br label %107

107:                                              ; preds = %106, %75
  call void @llvm.lifetime.end.p0(i64 4, ptr %9) #10
  call void @llvm.lifetime.end.p0(i64 8, ptr %8) #10
  call void @llvm.lifetime.end.p0(i64 8, ptr %7) #10
  ret i32 0
}