; Function Attrs: mustprogress nounwind uwtable
define hidden noundef i32 @_ZNK4ncnn5Scale15forward_inplaceERSt6vectorINS_3MatESaIS2_EERKNS_6OptionE(ptr noundef nonnull align 8 dereferenceable(360) %0, ptr noundef nonnull readonly align 8 captures(none) dereferenceable(24) %1, ptr noundef nonnull readonly align 8 captures(none) dereferenceable(64) %2) unnamed_addr #3 align 2 {
  %4 = alloca i32, align 4
  %5 = alloca ptr, align 8
  %6 = alloca i32, align 4
  %7 = alloca i32, align 4
  %8 = alloca i32, align 4
  %9 = alloca i32, align 4
  %10 = tail call i32 @__kmpc_global_thread_num(ptr nonnull @2)
  %11 = load ptr, ptr %1, align 8, !tbaa !43
  %12 = getelementptr inbounds nuw i8, ptr %11, i64 72
  %13 = getelementptr inbounds nuw i8, ptr %11, i64 40
  %14 = load i32, ptr %13, align 8, !tbaa !38
  switch i32 %14, label %53 [
    i32 1, label %15
    i32 2, label %26
    i32 3, label %38
  ]

15:                                               ; preds = %3
  call void @llvm.lifetime.start.p0(i64 4, ptr nonnull %4) #10
  %16 = getelementptr inbounds nuw i8, ptr %11, i64 44
  %17 = load i32, ptr %16, align 4, !tbaa !39
  store i32 %17, ptr %4, align 4, !tbaa !44
  call void @llvm.lifetime.start.p0(i64 8, ptr nonnull %5) #10
  %18 = load ptr, ptr %11, align 8, !tbaa !16
  store ptr %18, ptr %5, align 8, !tbaa !45
  %19 = getelementptr inbounds nuw i8, ptr %0, i64 212
  %20 = load i32, ptr %19, align 4, !tbaa !34
  %.not = icmp eq i32 %20, 0
  %21 = getelementptr inbounds nuw i8, ptr %2, i64 4
  %22 = load i32, ptr %21, align 4, !tbaa !47
  tail call void @__kmpc_push_num_threads(ptr nonnull @2, i32 %10, i32 %22)
  br i1 %.not, label %24, label %23

23:                                               ; preds = %15
  call void (ptr, i32, ptr, ...) @__kmpc_fork_call(ptr nonnull @2, i32 4, ptr nonnull @_ZNK4ncnn5Scale15forward_inplaceERSt6vectorINS_3MatESaIS2_EERKNS_6OptionE.omp_outlined, ptr nonnull %4, ptr nonnull %5, ptr nonnull %12, ptr nonnull %0)
  br label %25

24:                                               ; preds = %15
  call void (ptr, i32, ptr, ...) @__kmpc_fork_call(ptr nonnull @2, i32 3, ptr nonnull @_ZNK4ncnn5Scale15forward_inplaceERSt6vectorINS_3MatESaIS2_EERKNS_6OptionE.omp_outlined.1, ptr nonnull %4, ptr nonnull %5, ptr nonnull %12)
  br label %25

25:                                               ; preds = %24, %23
  call void @llvm.lifetime.end.p0(i64 8, ptr nonnull %5) #10
  call void @llvm.lifetime.end.p0(i64 4, ptr nonnull %4) #10
  br label %53

26:                                               ; preds = %3
  call void @llvm.lifetime.start.p0(i64 4, ptr nonnull %6) #10
  %27 = getelementptr inbounds nuw i8, ptr %11, i64 44
  %28 = load i32, ptr %27, align 4, !tbaa !39
  store i32 %28, ptr %6, align 4, !tbaa !44
  call void @llvm.lifetime.start.p0(i64 4, ptr nonnull %7) #10
  %29 = getelementptr inbounds nuw i8, ptr %11, i64 48
  %30 = load i32, ptr %29, align 8, !tbaa !40
  store i32 %30, ptr %7, align 4, !tbaa !44
  %31 = getelementptr inbounds nuw i8, ptr %0, i64 212
  %32 = load i32, ptr %31, align 4, !tbaa !34
  %.not31 = icmp eq i32 %32, 0
  %33 = getelementptr inbounds nuw i8, ptr %2, i64 4
  %34 = load i32, ptr %33, align 4, !tbaa !47
  tail call void @__kmpc_push_num_threads(ptr nonnull @2, i32 %10, i32 %34)
  br i1 %.not31, label %36, label %35

35:                                               ; preds = %26
  call void (ptr, i32, ptr, ...) @__kmpc_fork_call(ptr nonnull @2, i32 5, ptr nonnull @_ZNK4ncnn5Scale15forward_inplaceERSt6vectorINS_3MatESaIS2_EERKNS_6OptionE.omp_outlined.2, ptr nonnull %7, ptr nonnull %11, ptr nonnull %12, ptr nonnull %0, ptr nonnull %6)
  br label %37

36:                                               ; preds = %26
  call void (ptr, i32, ptr, ...) @__kmpc_fork_call(ptr nonnull @2, i32 4, ptr nonnull @_ZNK4ncnn5Scale15forward_inplaceERSt6vectorINS_3MatESaIS2_EERKNS_6OptionE.omp_outlined.3, ptr nonnull %7, ptr nonnull %11, ptr nonnull %12, ptr nonnull %6)
  br label %37

37:                                               ; preds = %36, %35
  call void @llvm.lifetime.end.p0(i64 4, ptr nonnull %7) #10
  call void @llvm.lifetime.end.p0(i64 4, ptr nonnull %6) #10
  br label %53

38:                                               ; preds = %3
  %39 = getelementptr inbounds nuw i8, ptr %11, i64 44
  %40 = load i32, ptr %39, align 4, !tbaa !39
  %41 = getelementptr inbounds nuw i8, ptr %11, i64 48
  %42 = load i32, ptr %41, align 8, !tbaa !40
  call void @llvm.lifetime.start.p0(i64 4, ptr nonnull %8) #10
  %43 = getelementptr inbounds nuw i8, ptr %11, i64 56
  %44 = load i32, ptr %43, align 8, !tbaa !42
  store i32 %44, ptr %8, align 4, !tbaa !44
  call void @llvm.lifetime.start.p0(i64 4, ptr nonnull %9) #10
  %45 = mul nsw i32 %42, %40
  store i32 %45, ptr %9, align 4, !tbaa !44
  %46 = getelementptr inbounds nuw i8, ptr %0, i64 212
  %47 = load i32, ptr %46, align 4, !tbaa !34
  %.not32 = icmp eq i32 %47, 0
  %48 = getelementptr inbounds nuw i8, ptr %2, i64 4
  %49 = load i32, ptr %48, align 4, !tbaa !47
  tail call void @__kmpc_push_num_threads(ptr nonnull @2, i32 %10, i32 %49)
  br i1 %.not32, label %51, label %50

50:                                               ; preds = %38
  call void (ptr, i32, ptr, ...) @__kmpc_fork_call(ptr nonnull @2, i32 5, ptr nonnull @_ZNK4ncnn5Scale15forward_inplaceERSt6vectorINS_3MatESaIS2_EERKNS_6OptionE.omp_outlined.4, ptr nonnull %8, ptr nonnull %11, ptr nonnull %12, ptr nonnull %0, ptr nonnull %9)
  br label %52

51:                                               ; preds = %38
  call void (ptr, i32, ptr, ...) @__kmpc_fork_call(ptr nonnull @2, i32 4, ptr nonnull @_ZNK4ncnn5Scale15forward_inplaceERSt6vectorINS_3MatESaIS2_EERKNS_6OptionE.omp_outlined.5, ptr nonnull %8, ptr nonnull %11, ptr nonnull %12, ptr nonnull %9)
  br label %52

52:                                               ; preds = %51, %50
  call void @llvm.lifetime.end.p0(i64 4, ptr nonnull %9) #10
  call void @llvm.lifetime.end.p0(i64 4, ptr nonnull %8) #10
  br label %53

53:                                               ; preds = %37, %25, %3, %52
  ret i32 0
}